; Function Attrs: nounwind uwtable
define hidden void @Curl_failf(ptr noundef %0, ptr noundef %1, ...) local_unnamed_addr #0 {
  %3 = alloca [1 x %struct.__va_list_tag], align 16
  %4 = alloca [258 x i8], align 16
  %5 = getelementptr inbounds nuw i8, ptr %0, i64 2658
  %6 = load i64, ptr %5, align 2
  %7 = and i64 %6, 2147483648
  %.not = icmp eq i64 %7, 0
  br i1 %.not, label %8, label %11

8:                                                ; preds = %2
  %9 = getelementptr inbounds nuw i8, ptr %0, i64 480
  %10 = load ptr, ptr %9, align 8, !tbaa !77
  %.not10 = icmp eq ptr %10, null
  br i1 %.not10, label %29, label %11

11:                                               ; preds = %8, %2
  call void @llvm.lifetime.start.p0(i64 24, ptr nonnull %3) #8
  call void @llvm.lifetime.start.p0(i64 258, ptr nonnull %4) #8
  call void @llvm.va_start.p0(ptr nonnull %3)
  %12 = call i32 @curl_mvsnprintf(ptr noundef nonnull %4, i64 noundef 256, ptr noundef %1, ptr noundef nonnull %3) #8
  %13 = getelementptr inbounds nuw i8, ptr %0, i64 480
  %14 = load ptr, ptr %13, align 8, !tbaa !77
  %.not11 = icmp eq ptr %14, null
  br i1 %.not11, label %23, label %15

15:                                               ; preds = %11
  %16 = getelementptr inbounds nuw i8, ptr %0, i64 5036
  %17 = load i32, ptr %16, align 4
  %18 = and i32 %17, 32
  %.not12 = icmp eq i32 %18, 0
  br i1 %.not12, label %19, label %23

19:                                               ; preds = %15
  %20 = call ptr @strcpy(ptr noundef nonnull dereferenceable(1) %14, ptr noundef nonnull dereferenceable(1) %4) #8
  %21 = load i32, ptr %16, align 4
  %22 = or i32 %21, 32
  store i32 %22, ptr %16, align 4
  br label %23

23:                                               ; preds = %19, %15, %11
  %24 = add nsw i32 %12, 1
  %25 = sext i32 %12 to i64
  %26 = getelementptr inbounds [258 x i8], ptr %4, i64 0, i64 %25
  store i8 10, ptr %26, align 1, !tbaa !78
  %27 = sext i32 %24 to i64
  %28 = getelementptr inbounds [258 x i8], ptr %4, i64 0, i64 %27
  store i8 0, ptr %28, align 1, !tbaa !78
  call void @Curl_debug(ptr noundef nonnull %0, i32 noundef 0, ptr noundef nonnull %4, i64 noundef %27)
  call void @llvm.va_end.p0(ptr nonnull %3)
  call void @llvm.lifetime.end.p0(i64 258, ptr nonnull %4) #8
  call void @llvm.lifetime.end.p0(i64 24, ptr nonnull %3) #8
  br label %29

29:                                               ; preds = %23, %8
  ret void
}